target datalayout = "e-m:e-p270:32:32-p271:32:32-p272:64:64-i64:64-i128:128-f80:128-n8:16:32:64-S128"
target triple = "x86_64-pc-linux-gnu"

%struct.Amap_Man_t_ = type { ptr, ptr, float, float, i32, i32, ptr, ptr, ptr, ptr, ptr, ptr, ptr, ptr, [7 x i32], i32, i32, i32, ptr, ptr, ptr, ptr, ptr, ptr, ptr, ptr, i32, i32, i32, i32 }
%struct.Amap_Obj_t_ = type { i64, i32, i32, i32, i32, [3 x i32], %union.anon, float, [2 x i32], %struct.Amap_Mat_t_ }
%union.anon = type { ptr }
%struct.Amap_Mat_t_ = type { ptr, ptr, float, float, float }
%struct.Vec_Ptr_t_ = type { i32, i32, ptr }

; Function Attrs: inlinehint nounwind uwtable
define internal i32 @Abc_LitIsCompl(i32 noundef %0) #4 {
  %2 = alloca i32, align 4
  store i32 %0, ptr %2, align 4, !tbaa !10
  %3 = load i32, ptr %2, align 4, !tbaa !10
  %4 = and i32 %3, 1
  ret i32 %4
}

; Function Attrs: inlinehint nounwind uwtable
define internal ptr @Amap_ManObj(ptr noundef %0, i32 noundef %1) #4 {
  %3 = alloca ptr, align 8
  %4 = alloca i32, align 4
  store ptr %0, ptr %3, align 8, !tbaa !3
  store i32 %1, ptr %4, align 4, !tbaa !10
  %5 = load ptr, ptr %3, align 8, !tbaa !3
  %6 = getelementptr inbounds nuw %struct.Amap_Man_t_, ptr %5, i32 0, i32 8
  %7 = load ptr, ptr %6, align 8, !tbaa !24
  %8 = load i32, ptr %4, align 4, !tbaa !10
  %9 = call ptr @Vec_PtrEntry(ptr noundef %7, i32 noundef %8)
  ret ptr %9
}

; Function Attrs: inlinehint nounwind uwtable
define internal i32 @Abc_Lit2Var(i32 noundef %0) #4 {
  %2 = alloca i32, align 4
  store i32 %0, ptr %2, align 4, !tbaa !10
  %3 = load i32, ptr %2, align 4, !tbaa !10
  %4 = ashr i32 %3, 1
  ret i32 %4
}

; Function Attrs: inlinehint nounwind uwtable
define internal i32 @Amap_ObjFaninC0(ptr noundef %0) #4 {
  %2 = alloca ptr, align 8
  store ptr %0, ptr %2, align 8, !tbaa !25
  %3 = load ptr, ptr %2, align 8, !tbaa !25
  %4 = getelementptr inbounds nuw %struct.Amap_Obj_t_, ptr %3, i32 0, i32 5
  %5 = getelementptr inbounds [3 x i32], ptr %4, i64 0, i64 0
  %6 = load i32, ptr %5, align 8, !tbaa !10
  %7 = call i32 @Abc_LitIsCompl(i32 noundef %6)
  ret i32 %7
}

; Function Attrs: inlinehint nounwind uwtable
define internal ptr @Amap_ObjFanin0(ptr noundef %0, ptr noundef %1) #4 {
  %3 = alloca ptr, align 8
  %4 = alloca ptr, align 8
  store ptr %0, ptr %3, align 8, !tbaa !3
  store ptr %1, ptr %4, align 8, !tbaa !25
  %5 = load ptr, ptr %3, align 8, !tbaa !3
  %6 = load ptr, ptr %4, align 8, !tbaa !25
  %7 = getelementptr inbounds nuw %struct.Amap_Obj_t_, ptr %6, i32 0, i32 5
  %8 = getelementptr inbounds [3 x i32], ptr %7, i64 0, i64 0
  %9 = load i32, ptr %8, align 8, !tbaa !10
  %10 = call i32 @Abc_Lit2Var(i32 noundef %9)
  %11 = call ptr @Amap_ManObj(ptr noundef %5, i32 noundef %10)
  ret ptr %11
}

; Function Attrs: inlinehint nounwind uwtable
define internal ptr @Vec_PtrEntry(ptr noundef %0, i32 noundef %1) #4 {
  %3 = alloca ptr, align 8
  %4 = alloca i32, align 4
  store ptr %0, ptr %3, align 8, !tbaa !28
  store i32 %1, ptr %4, align 4, !tbaa !10
  %5 = load ptr, ptr %3, align 8, !tbaa !28
  %6 = getelementptr inbounds nuw %struct.Vec_Ptr_t_, ptr %5, i32 0, i32 2
  %7 = load ptr, ptr %6, align 8, !tbaa !31
  %8 = load i32, ptr %4, align 4, !tbaa !10
  %9 = sext i32 %8 to i64
  %10 = getelementptr inbounds ptr, ptr %7, i64 %9
  %11 = load ptr, ptr %10, align 8, !tbaa !32
  ret ptr %11
}

; Function Attrs: inlinehint nounwind uwtable
define internal i32 @Vec_PtrSize(ptr noundef %0) #4 {
  %2 = alloca ptr, align 8
  store ptr %0, ptr %2, align 8, !tbaa !28
  %3 = load ptr, ptr %2, align 8, !tbaa !28
  %4 = getelementptr inbounds nuw %struct.Vec_Ptr_t_, ptr %3, i32 0, i32 1
  %5 = load i32, ptr %4, align 4, !tbaa !29
  ret i32 %5
}

; Function Attrs: nounwind uwtable
define void @Amap_ManCleanRefs(ptr noundef %0) #0 {
  %2 = alloca ptr, align 8
  %3 = alloca ptr, align 8
  %4 = alloca i32, align 4
  store ptr %0, ptr %2, align 8, !tbaa !3
  call void @llvm.lifetime.start.p0(i64 8, ptr %3) #12
  call void @llvm.lifetime.start.p0(i64 4, ptr %4) #12
  store i32 0, ptr %4, align 4, !tbaa !10
  br label %5

5:                                                ; preds = %32, %1
  %6 = load i32, ptr %4, align 4, !tbaa !10
  %7 = load ptr, ptr %2, align 8, !tbaa !3
  %8 = getelementptr inbounds nuw %struct.Amap_Man_t_, ptr %7, i32 0, i32 8
  %9 = load ptr, ptr %8, align 8, !tbaa !24
  %10 = call i32 @Vec_PtrSize(ptr noundef %9)
  %11 = icmp slt i32 %6, %10
  br i1 %11, label %12, label %18

12:                                               ; preds = %5
  %13 = load ptr, ptr %2, align 8, !tbaa !3
  %14 = getelementptr inbounds nuw %struct.Amap_Man_t_, ptr %13, i32 0, i32 8
  %15 = load ptr, ptr %14, align 8, !tbaa !24
  %16 = load i32, ptr %4, align 4, !tbaa !10
  %17 = call ptr @Vec_PtrEntry(ptr noundef %15, i32 noundef %16)
  store ptr %17, ptr %3, align 8, !tbaa !25
  br label %18

18:                                               ; preds = %12, %5
  %19 = phi i1 [ false, %5 ], [ true, %12 ]
  br i1 %19, label %20, label %35

20:                                               ; preds = %18
  %21 = load ptr, ptr %3, align 8, !tbaa !25
  %22 = icmp eq ptr %21, null
  br i1 %22, label %23, label %24

23:                                               ; preds = %20
  br label %31

24:                                               ; preds = %20
  %25 = load ptr, ptr %3, align 8, !tbaa !25
  %26 = getelementptr inbounds nuw %struct.Amap_Obj_t_, ptr %25, i32 0, i32 8
  %27 = getelementptr inbounds [2 x i32], ptr %26, i64 0, i64 1
  store i32 0, ptr %27, align 4, !tbaa !10
  %28 = load ptr, ptr %3, align 8, !tbaa !25
  %29 = getelementptr inbounds nuw %struct.Amap_Obj_t_, ptr %28, i32 0, i32 8
  %30 = getelementptr inbounds [2 x i32], ptr %29, i64 0, i64 0
  store i32 0, ptr %30, align 4, !tbaa !10
  br label %31

31:                                               ; preds = %24, %23
  br label %32

32:                                               ; preds = %31
  %33 = load i32, ptr %4, align 4, !tbaa !10
  %34 = add nsw i32 %33, 1
  store i32 %34, ptr %4, align 4, !tbaa !10
  br label %5, !llvm.loop !26

35:                                               ; preds = %18
  call void @llvm.lifetime.end.p0(i64 4, ptr %4) #12
  call void @llvm.lifetime.end.p0(i64 8, ptr %3) #12
  ret void
}

; Function Attrs: nounwind uwtable
define float @Amap_ManComputeMapping(ptr noundef %0) #0 {
  %2 = alloca ptr, align 8
  %3 = alloca ptr, align 8
  %4 = alloca float, align 4
  %5 = alloca i32, align 4
  store ptr %0, ptr %2, align 8, !tbaa !3
  call void @llvm.lifetime.start.p0(i64 8, ptr %3) #12
  call void @llvm.lifetime.start.p0(i64 4, ptr %4) #12
  store float 0.000000e+00, ptr %4, align 4, !tbaa !33
  call void @llvm.lifetime.start.p0(i64 4, ptr %5) #12
  %6 = load ptr, ptr %2, align 8, !tbaa !3
  call void @Amap_ManCleanRefs(ptr noundef %6)
  store i32 0, ptr %5, align 4, !tbaa !10
  br label %7

7:                                                ; preds = %32, %1
  %8 = load i32, ptr %5, align 4, !tbaa !10
  %9 = load ptr, ptr %2, align 8, !tbaa !3
  %10 = getelementptr inbounds nuw %struct.Amap_Man_t_, ptr %9, i32 0, i32 7
  %11 = load ptr, ptr %10, align 8, !tbaa !34
  %12 = call i32 @Vec_PtrSize(ptr noundef %11)
  %13 = icmp slt i32 %8, %12
  br i1 %13, label %14, label %20

14:                                               ; preds = %7
  %15 = load ptr, ptr %2, align 8, !tbaa !3
  %16 = getelementptr inbounds nuw %struct.Amap_Man_t_, ptr %15, i32 0, i32 7
  %17 = load ptr, ptr %16, align 8, !tbaa !34
  %18 = load i32, ptr %5, align 4, !tbaa !10
  %19 = call ptr @Vec_PtrEntry(ptr noundef %17, i32 noundef %18)
  store ptr %19, ptr %3, align 8, !tbaa !25
  br label %20

20:                                               ; preds = %14, %7
  %21 = phi i1 [ false, %7 ], [ true, %14 ]
  br i1 %21, label %22, label %35

22:                                               ; preds = %20
  %23 = load ptr, ptr %2, align 8, !tbaa !3
  %24 = load ptr, ptr %2, align 8, !tbaa !3
  %25 = load ptr, ptr %3, align 8, !tbaa !25
  %26 = call ptr @Amap_ObjFanin0(ptr noundef %24, ptr noundef %25)
  %27 = load ptr, ptr %3, align 8, !tbaa !25
  %28 = call i32 @Amap_ObjFaninC0(ptr noundef %27)
  %29 = call float @Amap_ManComputeMapping_rec(ptr noundef %23, ptr noundef %26, i32 noundef %28)
  %30 = load float, ptr %4, align 4, !tbaa !33
  %31 = fadd float %30, %29
  store float %31, ptr %4, align 4, !tbaa !33
  br label %32

32:                                               ; preds = %22
  %33 = load i32, ptr %5, align 4, !tbaa !10
  %34 = add nsw i32 %33, 1
  store i32 %34, ptr %5, align 4, !tbaa !10
  br label %7, !llvm.loop !59

35:                                               ; preds = %20
  %36 = load float, ptr %4, align 4, !tbaa !33
  call void @llvm.lifetime.end.p0(i64 4, ptr %5) #12
  call void @llvm.lifetime.end.p0(i64 4, ptr %4) #12
  call void @llvm.lifetime.end.p0(i64 8, ptr %3) #12
  ret float %36
}