; Function Attrs: nofree nosync nounwind memory(readwrite, inaccessiblemem: none) uwtable
define float @Amap_ManComputeMapping(ptr noundef readonly captures(none) %0) local_unnamed_addr #6 {
  %2 = getelementptr inbounds nuw i8, ptr %0, i64 48
  %3 = load ptr, ptr %2, align 8, !tbaa !20
  %4 = getelementptr i8, ptr %3, i64 4
  %.val9.i = load i32, ptr %4, align 4, !tbaa !21
  %5 = icmp sgt i32 %.val9.i, 0
  br i1 %5, label %.lr.ph.i, label %Amap_ManCleanRefs.exit

.lr.ph.i:                                         ; preds = %1
  %6 = getelementptr i8, ptr %3, i64 8
  %.val8.i = load ptr, ptr %6, align 8, !tbaa !23
  br label %7

7:                                                ; preds = %14, %.lr.ph.i
  %.val12.i = phi i32 [ %.val9.i, %.lr.ph.i ], [ %.val.i, %14 ]
  %indvars.iv.i = phi i64 [ 0, %.lr.ph.i ], [ %indvars.iv.next.i, %14 ]
  %8 = getelementptr inbounds nuw ptr, ptr %.val8.i, i64 %indvars.iv.i
  %9 = load ptr, ptr %8, align 8, !tbaa !24
  %10 = icmp eq ptr %9, null
  br i1 %10, label %14, label %11

11:                                               ; preds = %7
  %12 = getelementptr inbounds nuw i8, ptr %9, i64 52
  %13 = getelementptr inbounds nuw i8, ptr %9, i64 56
  store i32 0, ptr %13, align 4, !tbaa !25
  store i32 0, ptr %12, align 4, !tbaa !25
  %.val.pre.i = load i32, ptr %4, align 4, !tbaa !21
  br label %14

14:                                               ; preds = %11, %7
  %.val.i = phi i32 [ %.val.pre.i, %11 ], [ %.val12.i, %7 ]
  %indvars.iv.next.i = add nuw nsw i64 %indvars.iv.i, 1
  %15 = sext i32 %.val.i to i64
  %16 = icmp slt i64 %indvars.iv.next.i, %15
  br i1 %16, label %7, label %Amap_ManCleanRefs.exit, !llvm.loop !26

Amap_ManCleanRefs.exit:                           ; preds = %14, %1
  %17 = getelementptr inbounds nuw i8, ptr %0, i64 40
  %18 = load ptr, ptr %17, align 8, !tbaa !28
  %19 = getelementptr i8, ptr %18, i64 4
  %.val16 = load i32, ptr %19, align 4, !tbaa !21
  %20 = icmp sgt i32 %.val16, 0
  br i1 %20, label %.lr.ph, label %.critedge

.lr.ph:                                           ; preds = %Amap_ManCleanRefs.exit, %.lr.ph
  %indvars.iv = phi i64 [ %indvars.iv.next, %.lr.ph ], [ 0, %Amap_ManCleanRefs.exit ]
  %21 = phi ptr [ %34, %.lr.ph ], [ %18, %Amap_ManCleanRefs.exit ]
  %.01117 = phi float [ %33, %.lr.ph ], [ 0.000000e+00, %Amap_ManCleanRefs.exit ]
  %22 = getelementptr i8, ptr %21, i64 8
  %.val12 = load ptr, ptr %22, align 8, !tbaa !23
  %23 = getelementptr inbounds nuw ptr, ptr %.val12, i64 %indvars.iv
  %24 = load ptr, ptr %23, align 8, !tbaa !24
  %.val13 = load ptr, ptr %2, align 8, !tbaa !20
  %25 = getelementptr i8, ptr %24, i64 24
  %.val14 = load i32, ptr %25, align 8, !tbaa !25
  %26 = getelementptr i8, ptr %.val13, i64 8
  %.val13.val = load ptr, ptr %26, align 8, !tbaa !23
  %27 = ashr i32 %.val14, 1
  %28 = sext i32 %27 to i64
  %29 = getelementptr inbounds ptr, ptr %.val13.val, i64 %28
  %30 = load ptr, ptr %29, align 8, !tbaa !24
  %31 = and i32 %.val14, 1
  %32 = tail call float @Amap_ManComputeMapping_rec(ptr noundef nonnull %0, ptr noundef %30, i32 noundef %31)
  %33 = fadd float %.01117, %32
  %indvars.iv.next = add nuw nsw i64 %indvars.iv, 1
  %34 = load ptr, ptr %17, align 8, !tbaa !28
  %35 = getelementptr i8, ptr %34, i64 4
  %.val = load i32, ptr %35, align 4, !tbaa !21
  %36 = sext i32 %.val to i64
  %37 = icmp slt i64 %indvars.iv.next, %36
  br i1 %37, label %.lr.ph, label %.critedge, !llvm.loop !49

.critedge:                                        ; preds = %.lr.ph, %Amap_ManCleanRefs.exit
  %.011.lcssa = phi float [ 0.000000e+00, %Amap_ManCleanRefs.exit ], [ %33, %.lr.ph ]
  ret float %.011.lcssa
}